; Function Attrs: mustprogress uwtable
define hidden noundef zeroext i1 @_ZN11OpenImageIO6v3_1_09TIFFInput4openERKNSt7__cxx1112basic_stringIcSt11char_traitsIcESaIcEEERNS0_9ImageSpecERKSA_(ptr noundef nonnull align 8 dereferenceable(384) %0, ptr noundef nonnull align 8 dereferenceable(32) %1, ptr noundef nonnull align 8 dereferenceable(160) initializes((0, 72)) %2, ptr noundef nonnull align 8 dereferenceable(160) %3) unnamed_addr #5 align 2 personality ptr @__gxx_personality_v0 {
  %5 = alloca %"class.OpenImageIO::v3_1_0::basic_string_view", align 8
  %6 = alloca %"class.OpenImageIO::v3_1_0::basic_string_view", align 8
  %7 = alloca %"class.OpenImageIO::v3_1_0::basic_string_view", align 8
  tail call void @_ZN11OpenImageIO6v3_1_010ImageInput28ioproxy_retrieve_from_configERKNS0_9ImageSpecE(ptr noundef nonnull align 8 dereferenceable(184) %0, ptr noundef nonnull align 8 dereferenceable(160) %3)
  store ptr @.str.8, ptr %5, align 8, !tbaa !111
  %8 = getelementptr inbounds nuw i8, ptr %5, i64 8
  store i64 22, ptr %8, align 8, !tbaa !113
  %9 = call noundef i32 @_ZNK11OpenImageIO6v3_1_09ImageSpec17get_int_attributeENS0_17basic_string_viewIcSt11char_traitsIcEEEi(ptr noundef nonnull align 8 dereferenceable(160) %3, ptr noundef nonnull %5, i32 noundef 0)
  %10 = icmp eq i32 %9, 1
  br i1 %10, label %11, label %13

11:                                               ; preds = %4
  %12 = getelementptr inbounds nuw i8, ptr %0, i64 282
  store i8 1, ptr %12, align 2, !tbaa !114
  br label %13

13:                                               ; preds = %11, %4
  store ptr @.str.9, ptr %6, align 8, !tbaa !111
  %14 = getelementptr inbounds nuw i8, ptr %6, i64 8
  store i64 13, ptr %14, align 8, !tbaa !113
  %15 = call noundef i32 @_ZNK11OpenImageIO6v3_1_09ImageSpec17get_int_attributeENS0_17basic_string_viewIcSt11char_traitsIcEEEi(ptr noundef nonnull align 8 dereferenceable(160) %3, ptr noundef nonnull %6, i32 noundef 0)
  %16 = icmp eq i32 %15, 1
  br i1 %16, label %17, label %19

17:                                               ; preds = %13
  %18 = getelementptr inbounds nuw i8, ptr %0, i64 283
  store i8 1, ptr %18, align 1, !tbaa !115
  br label %19

19:                                               ; preds = %17, %13
  store ptr @.str.10, ptr %7, align 8, !tbaa !111
  %20 = getelementptr inbounds nuw i8, ptr %7, i64 8
  store i64 21, ptr %20, align 8, !tbaa !113
  %21 = call noundef i32 @_ZNK11OpenImageIO6v3_1_09ImageSpec17get_int_attributeENS0_17basic_string_viewIcSt11char_traitsIcEEEi(ptr noundef nonnull align 8 dereferenceable(160) %3, ptr noundef nonnull %7, i32 noundef 0)
  %.not = icmp eq i32 %21, 0
  br i1 %.not, label %24, label %22

22:                                               ; preds = %19
  %23 = getelementptr inbounds nuw i8, ptr %0, i64 286
  store i8 1, ptr %23, align 2, !tbaa !116
  br label %24

24:                                               ; preds = %22, %19
  %25 = getelementptr inbounds nuw i8, ptr %0, i64 192
  call void @_ZNSt7__cxx1112basic_stringIcSt11char_traitsIcESaIcEE9_M_assignERKS4_(ptr noundef nonnull align 8 dereferenceable(32) %25, ptr noundef nonnull align 8 dereferenceable(32) %1)
  %26 = getelementptr inbounds nuw i8, ptr %0, i64 272
  store i32 -1, ptr %26, align 8, !tbaa !78
  %27 = call noundef zeroext i1 @_ZN11OpenImageIO6v3_1_09TIFFInput13seek_subimageEii(ptr noundef nonnull align 8 dereferenceable(384) %0, i32 noundef 0, i32 noundef 0)
  %28 = getelementptr inbounds nuw i8, ptr %0, i64 8
  call void @llvm.memcpy.p0.p0.i64(ptr noundef nonnull align 8 dereferenceable(160) %2, ptr noundef nonnull align 8 dereferenceable(160) %28, i64 72, i1 false)
  %29 = getelementptr inbounds nuw i8, ptr %2, i64 72
  %30 = getelementptr inbounds nuw i8, ptr %0, i64 80
  %31 = call noundef nonnull align 8 dereferenceable(24) ptr @_ZNSt6vectorIN11OpenImageIO6v3_1_08TypeDescESaIS2_EEaSERKS4_(ptr noundef nonnull align 8 dereferenceable(24) %29, ptr noundef nonnull align 8 dereferenceable(24) %30)
  %32 = getelementptr inbounds nuw i8, ptr %2, i64 96
  %33 = getelementptr inbounds nuw i8, ptr %0, i64 104
  %34 = call noundef nonnull align 8 dereferenceable(24) ptr @_ZNSt6vectorINSt7__cxx1112basic_stringIcSt11char_traitsIcESaIcEEESaIS5_EEaSERKS7_(ptr noundef nonnull align 8 dereferenceable(24) %32, ptr noundef nonnull align 8 dereferenceable(24) %33)
  %35 = getelementptr inbounds nuw i8, ptr %2, i64 120
  %36 = getelementptr inbounds nuw i8, ptr %0, i64 128
  call void @llvm.memcpy.p0.p0.i64(ptr noundef nonnull align 8 dereferenceable(9) %35, ptr noundef nonnull align 8 dereferenceable(9) %36, i64 9, i1 false)
  %37 = getelementptr inbounds nuw i8, ptr %2, i64 136
  %38 = getelementptr inbounds nuw i8, ptr %0, i64 144
  %39 = call noundef nonnull align 8 dereferenceable(24) ptr @_ZNSt6vectorIN11OpenImageIO6v3_1_010ParamValueESaIS2_EEaSERKS4_(ptr noundef nonnull align 8 dereferenceable(24) %37, ptr noundef nonnull align 8 dereferenceable(24) %38)
  ret i1 %27
}